(dp0
S'info'
p1
I0
sS'function'
p2
I0
sS'error'
p3
I1
sS'statement'
p4
I23
sS'by_msg'
p5
(dp6
S'unbalanced-tuple-unpacking'
p7
I1
ssS'refactor'
p8
I0
sS'method'
p9
I0
sS'cycles'
p10
(lp11
sS'warning'
p12
I0
sS'module'
p13
I1
sS'dependencies'
p14
(dp15
sS'convention'
p16
I0
sS'fatal'
p17
I0
sS'class'
p18
I0
sS'by_module'
p19
(dp20
S'ex16_flymake'
p21
(dp22
g1
I0
sg16
I0
sg8
I0
sg12
I0
sg4
I0
sg3
I1
sg17
I0
sss.