(dp0
S'info'
p1
I0
sS'function'
p2
I0
sS'error'
p3
I0
sS'statement'
p4
I6
sS'by_msg'
p5
(dp6
sS'refactor'
p7
I0
sS'method'
p8
I0
sS'cycles'
p9
(lp10
sS'warning'
p11
I0
sS'module'
p12
I1
sS'dependencies'
p13
(dp14
sS'convention'
p15
I0
sS'fatal'
p16
I0
sS'class'
p17
I0
sS'by_module'
p18
(dp19
S'ex8_flymake'
p20
(dp21
g1
I0
sg15
I0
sg7
I0
sg11
I0
sg4
I0
sg3
I0
sg16
I0
sss.